target datalayout = "e-m:e-p270:32:32-p271:32:32-p272:64:64-i64:64-i128:128-f80:128-n8:16:32:64-S128"
target triple = "x86_64-unknown-linux-gnu"

%struct.parse = type { ptr, ptr, i32, ptr, i64, i64, i32, ptr, [10 x i64], [10 x i64] }

@nuls = internal global [10 x i8] zeroinitializer, align 1

; Function Attrs: nounwind uwtable
define internal i32 @seterr(ptr noundef %p, i32 noundef %e) #0 {
entry:
  %p.addr = alloca ptr, align 8
  %e.addr = alloca i32, align 4
  store ptr %p, ptr %p.addr, align 8
  store i32 %e, ptr %e.addr, align 4
  %0 = load ptr, ptr %p.addr, align 8
  %error = getelementptr inbounds %struct.parse, ptr %0, i32 0, i32 2
  %1 = load i32, ptr %error, align 8
  %cmp = icmp eq i32 %1, 0
  br i1 %cmp, label %if.then, label %if.end

if.then:                                          ; preds = %entry
  %2 = load i32, ptr %e.addr, align 4
  %3 = load ptr, ptr %p.addr, align 8
  %error1 = getelementptr inbounds %struct.parse, ptr %3, i32 0, i32 2
  store i32 %2, ptr %error1, align 8
  br label %if.end

if.end:                                           ; preds = %if.then, %entry
  %4 = load ptr, ptr %p.addr, align 8
  %next = getelementptr inbounds %struct.parse, ptr %4, i32 0, i32 0
  store ptr @nuls, ptr %next, align 8
  %5 = load ptr, ptr %p.addr, align 8
  %end = getelementptr inbounds %struct.parse, ptr %5, i32 0, i32 1
  store ptr @nuls, ptr %end, align 8
  ret i32 0
}

; Function Attrs: nounwind uwtable
define internal void @enlarge(ptr noundef %p, i64 noundef %size) #0 {
entry:
  %p.addr = alloca ptr, align 8
  %size.addr = alloca i64, align 8
  %sp = alloca ptr, align 8
  store ptr %p, ptr %p.addr, align 8
  store i64 %size, ptr %size.addr, align 8
  %0 = load ptr, ptr %p.addr, align 8
  %ssize = getelementptr inbounds %struct.parse, ptr %0, i32 0, i32 4
  %1 = load i64, ptr %ssize, align 8
  %2 = load i64, ptr %size.addr, align 8
  %cmp = icmp sge i64 %1, %2
  br i1 %cmp, label %if.then, label %if.end

if.then:                                          ; preds = %entry
  br label %return

if.end:                                           ; preds = %entry
  %3 = load i64, ptr %size.addr, align 8
  %cmp1 = icmp ugt i64 %3, 2305843009213693951
  br i1 %cmp1, label %if.then2, label %if.end3

if.then2:                                         ; preds = %if.end
  %4 = load ptr, ptr %p.addr, align 8
  %call = call i32 @seterr(ptr noundef %4, i32 noundef 12)
  br label %return

if.end3:                                          ; preds = %if.end
  %5 = load ptr, ptr %p.addr, align 8
  %strip = getelementptr inbounds %struct.parse, ptr %5, i32 0, i32 3
  %6 = load ptr, ptr %strip, align 8
  %7 = load i64, ptr %size.addr, align 8
  %mul = mul i64 %7, 8
  %call4 = call ptr @realloc(ptr noundef %6, i64 noundef %mul) #14
  store ptr %call4, ptr %sp, align 8
  %8 = load ptr, ptr %sp, align 8
  %cmp5 = icmp eq ptr %8, null
  br i1 %cmp5, label %if.then6, label %if.end8

if.then6:                                         ; preds = %if.end3
  %9 = load ptr, ptr %p.addr, align 8
  %call7 = call i32 @seterr(ptr noundef %9, i32 noundef 12)
  br label %return

if.end8:                                          ; preds = %if.end3
  %10 = load ptr, ptr %sp, align 8
  %11 = load ptr, ptr %p.addr, align 8
  %strip9 = getelementptr inbounds %struct.parse, ptr %11, i32 0, i32 3
  store ptr %10, ptr %strip9, align 8
  %12 = load i64, ptr %size.addr, align 8
  %13 = load ptr, ptr %p.addr, align 8
  %ssize10 = getelementptr inbounds %struct.parse, ptr %13, i32 0, i32 4
  store i64 %12, ptr %ssize10, align 8
  br label %return

return:                                           ; preds = %if.end8, %if.then6, %if.then2, %if.then
  ret void
}

; Function Attrs: nounwind uwtable
define internal void @doemit(ptr noundef %p, i64 noundef %op, i64 noundef %opnd) #0 {
entry:
  %p.addr = alloca ptr, align 8
  %op.addr = alloca i64, align 8
  %opnd.addr = alloca i64, align 8
  store ptr %p, ptr %p.addr, align 8
  store i64 %op, ptr %op.addr, align 8
  store i64 %opnd, ptr %opnd.addr, align 8
  %0 = load ptr, ptr %p.addr, align 8
  %error = getelementptr inbounds %struct.parse, ptr %0, i32 0, i32 2
  %1 = load i32, ptr %error, align 8
  %cmp = icmp ne i32 %1, 0
  br i1 %cmp, label %if.then, label %if.end

if.then:                                          ; preds = %entry
  br label %return

if.end:                                           ; preds = %entry
  %2 = load ptr, ptr %p.addr, align 8
  %slen = getelementptr inbounds %struct.parse, ptr %2, i32 0, i32 5
  %3 = load i64, ptr %slen, align 8
  %4 = load ptr, ptr %p.addr, align 8
  %ssize = getelementptr inbounds %struct.parse, ptr %4, i32 0, i32 4
  %5 = load i64, ptr %ssize, align 8
  %cmp1 = icmp sge i64 %3, %5
  br i1 %cmp1, label %if.then2, label %if.end4

if.then2:                                         ; preds = %if.end
  %6 = load ptr, ptr %p.addr, align 8
  %7 = load ptr, ptr %p.addr, align 8
  %ssize3 = getelementptr inbounds %struct.parse, ptr %7, i32 0, i32 4
  %8 = load i64, ptr %ssize3, align 8
  %add = add nsw i64 %8, 1
  %div = sdiv i64 %add, 2
  %mul = mul nsw i64 %div, 3
  call void @enlarge(ptr noundef %6, i64 noundef %mul)
  br label %if.end4

if.end4:                                          ; preds = %if.then2, %if.end
  %9 = load i64, ptr %op.addr, align 8
  %10 = load i64, ptr %opnd.addr, align 8
  %or = or i64 %9, %10
  %11 = load ptr, ptr %p.addr, align 8
  %strip = getelementptr inbounds %struct.parse, ptr %11, i32 0, i32 3
  %12 = load ptr, ptr %strip, align 8
  %13 = load ptr, ptr %p.addr, align 8
  %slen5 = getelementptr inbounds %struct.parse, ptr %13, i32 0, i32 5
  %14 = load i64, ptr %slen5, align 8
  %inc = add nsw i64 %14, 1
  store i64 %inc, ptr %slen5, align 8
  %arrayidx = getelementptr inbounds i64, ptr %12, i64 %14
  store i64 %or, ptr %arrayidx, align 8
  br label %return

return:                                           ; preds = %if.end4, %if.then
  ret void
}

; Function Attrs: nounwind uwtable
define internal void @doinsert(ptr noundef %p, i64 noundef %op, i64 noundef %opnd, i64 noundef %pos) #0 {
entry:
  %p.addr = alloca ptr, align 8
  %op.addr = alloca i64, align 8
  %opnd.addr = alloca i64, align 8
  %pos.addr = alloca i64, align 8
  %sn = alloca i64, align 8
  %s = alloca i64, align 8
  %i = alloca i32, align 4
  store ptr %p, ptr %p.addr, align 8
  store i64 %op, ptr %op.addr, align 8
  store i64 %opnd, ptr %opnd.addr, align 8
  store i64 %pos, ptr %pos.addr, align 8
  %0 = load ptr, ptr %p.addr, align 8
  %error = getelementptr inbounds %struct.parse, ptr %0, i32 0, i32 2
  %1 = load i32, ptr %error, align 8
  %cmp = icmp ne i32 %1, 0
  br i1 %cmp, label %if.then, label %if.end

if.then:                                          ; preds = %entry
  br label %return

if.end:                                           ; preds = %entry
  %2 = load ptr, ptr %p.addr, align 8
  %slen = getelementptr inbounds %struct.parse, ptr %2, i32 0, i32 5
  %3 = load i64, ptr %slen, align 8
  store i64 %3, ptr %sn, align 8
  %4 = load ptr, ptr %p.addr, align 8
  %5 = load i64, ptr %op.addr, align 8
  %6 = load i64, ptr %opnd.addr, align 8
  call void @doemit(ptr noundef %4, i64 noundef %5, i64 noundef %6)
  %7 = load ptr, ptr %p.addr, align 8
  %strip = getelementptr inbounds %struct.parse, ptr %7, i32 0, i32 3
  %8 = load ptr, ptr %strip, align 8
  %9 = load i64, ptr %sn, align 8
  %arrayidx = getelementptr inbounds i64, ptr %8, i64 %9
  %10 = load i64, ptr %arrayidx, align 8
  store i64 %10, ptr %s, align 8
  store i32 1, ptr %i, align 4
  br label %for.cond

for.cond:                                         ; preds = %for.inc, %if.end
  %11 = load i32, ptr %i, align 4
  %cmp1 = icmp slt i32 %11, 10
  br i1 %cmp1, label %for.body, label %for.end

for.body:                                         ; preds = %for.cond
  %12 = load ptr, ptr %p.addr, align 8
  %pbegin = getelementptr inbounds %struct.parse, ptr %12, i32 0, i32 8
  %13 = load i32, ptr %i, align 4
  %idxprom = sext i32 %13 to i64
  %arrayidx2 = getelementptr inbounds [10 x i64], ptr %pbegin, i64 0, i64 %idxprom
  %14 = load i64, ptr %arrayidx2, align 8
  %15 = load i64, ptr %pos.addr, align 8
  %cmp3 = icmp sge i64 %14, %15
  br i1 %cmp3, label %if.then4, label %if.end8

if.then4:                                         ; preds = %for.body
  %16 = load ptr, ptr %p.addr, align 8
  %pbegin5 = getelementptr inbounds %struct.parse, ptr %16, i32 0, i32 8
  %17 = load i32, ptr %i, align 4
  %idxprom6 = sext i32 %17 to i64
  %arrayidx7 = getelementptr inbounds [10 x i64], ptr %pbegin5, i64 0, i64 %idxprom6
  %18 = load i64, ptr %arrayidx7, align 8
  %inc = add nsw i64 %18, 1
  store i64 %inc, ptr %arrayidx7, align 8
  br label %if.end8

if.end8:                                          ; preds = %if.then4, %for.body
  %19 = load ptr, ptr %p.addr, align 8
  %pend = getelementptr inbounds %struct.parse, ptr %19, i32 0, i32 9
  %20 = load i32, ptr %i, align 4
  %idxprom9 = sext i32 %20 to i64
  %arrayidx10 = getelementptr inbounds [10 x i64], ptr %pend, i64 0, i64 %idxprom9
  %21 = load i64, ptr %arrayidx10, align 8
  %22 = load i64, ptr %pos.addr, align 8
  %cmp11 = icmp sge i64 %21, %22
  br i1 %cmp11, label %if.then12, label %if.end17

if.then12:                                        ; preds = %if.end8
  %23 = load ptr, ptr %p.addr, align 8
  %pend13 = getelementptr inbounds %struct.parse, ptr %23, i32 0, i32 9
  %24 = load i32, ptr %i, align 4
  %idxprom14 = sext i32 %24 to i64
  %arrayidx15 = getelementptr inbounds [10 x i64], ptr %pend13, i64 0, i64 %idxprom14
  %25 = load i64, ptr %arrayidx15, align 8
  %inc16 = add nsw i64 %25, 1
  store i64 %inc16, ptr %arrayidx15, align 8
  br label %if.end17

if.end17:                                         ; preds = %if.then12, %if.end8
  br label %for.inc

for.inc:                                          ; preds = %if.end17
  %26 = load i32, ptr %i, align 4
  %inc18 = add nsw i32 %26, 1
  store i32 %inc18, ptr %i, align 4
  br label %for.cond, !llvm.loop !17

for.end:                                          ; preds = %for.cond
  %27 = load ptr, ptr %p.addr, align 8
  %strip19 = getelementptr inbounds %struct.parse, ptr %27, i32 0, i32 3
  %28 = load ptr, ptr %strip19, align 8
  %29 = load i64, ptr %pos.addr, align 8
  %add = add nsw i64 %29, 1
  %arrayidx20 = getelementptr inbounds i64, ptr %28, i64 %add
  %30 = load ptr, ptr %p.addr, align 8
  %strip21 = getelementptr inbounds %struct.parse, ptr %30, i32 0, i32 3
  %31 = load ptr, ptr %strip21, align 8
  %32 = load i64, ptr %pos.addr, align 8
  %arrayidx22 = getelementptr inbounds i64, ptr %31, i64 %32
  %33 = load ptr, ptr %p.addr, align 8
  %slen23 = getelementptr inbounds %struct.parse, ptr %33, i32 0, i32 5
  %34 = load i64, ptr %slen23, align 8
  %35 = load i64, ptr %pos.addr, align 8
  %sub = sub nsw i64 %34, %35
  %sub24 = sub nsw i64 %sub, 1
  %mul = mul i64 %sub24, 8
  call void @llvm.memmove.p0.p0.i64(ptr align 1 %arrayidx20, ptr align 1 %arrayidx22, i64 %mul, i1 false)
  %36 = load i64, ptr %s, align 8
  %37 = load ptr, ptr %p.addr, align 8
  %strip25 = getelementptr inbounds %struct.parse, ptr %37, i32 0, i32 3
  %38 = load ptr, ptr %strip25, align 8
  %39 = load i64, ptr %pos.addr, align 8
  %arrayidx26 = getelementptr inbounds i64, ptr %38, i64 %39
  store i64 %36, ptr %arrayidx26, align 8
  br label %return

return:                                           ; preds = %for.end, %if.then
  ret void
}