; Function Attrs: nounwind uwtable
define internal fastcc void @doinsert(ptr noundef nonnull captures(none) %p, i64 noundef range(i64 1207959552, 2013265921) %op, i64 noundef range(i64 -9223372036854775807, -9223372036854775808) %opnd, i64 noundef %pos) unnamed_addr #0 {
entry:
  %error = getelementptr inbounds nuw i8, ptr %p, i64 16
  %0 = load i32, ptr %error, align 8
  %cmp.not = icmp eq i32 %0, 0
  br i1 %cmp.not, label %if.end.i, label %return

if.end.i:                                         ; preds = %entry
  %slen = getelementptr inbounds nuw i8, ptr %p, i64 40
  %1 = load i64, ptr %slen, align 8
  %ssize.i = getelementptr inbounds nuw i8, ptr %p, i64 32
  %2 = load i64, ptr %ssize.i, align 8
  %cmp1.not.i = icmp slt i64 %1, %2
  br i1 %cmp1.not.i, label %doemit.exit, label %if.then2.i

if.then2.i:                                       ; preds = %if.end.i
  %add.i = add nsw i64 %2, 1
  %div.i = sdiv i64 %add.i, 2
  %mul.i = mul nsw i64 %div.i, 3
  %cmp.not.i.i = icmp slt i64 %2, %mul.i
  br i1 %cmp.not.i.i, label %if.end.i.i, label %doemit.exit

if.end.i.i:                                       ; preds = %if.then2.i
  %cmp1.i.i = icmp ugt i64 %mul.i, 2305843009213693951
  br i1 %cmp1.i.i, label %seterr.exit.i.i, label %if.end3.i.i

seterr.exit.i.i:                                  ; preds = %if.end.i.i
  store i32 12, ptr %error, align 8
  store ptr @nuls, ptr %p, align 8
  %end.i.i.i = getelementptr inbounds nuw i8, ptr %p, i64 8
  store ptr @nuls, ptr %end.i.i.i, align 8
  br label %doemit.exit

if.end3.i.i:                                      ; preds = %if.end.i.i
  %strip.i.i = getelementptr inbounds nuw i8, ptr %p, i64 24
  %3 = load ptr, ptr %strip.i.i, align 8
  %mul.i.i = mul i64 %div.i, 24
  %call4.i.i = tail call ptr @realloc(ptr noundef %3, i64 noundef %mul.i.i) #19
  %cmp5.i.i = icmp eq ptr %call4.i.i, null
  br i1 %cmp5.i.i, label %if.then6.i.i, label %if.end8.i.i

if.then6.i.i:                                     ; preds = %if.end3.i.i
  %4 = load i32, ptr %error, align 8
  %cmp.i11.i.i = icmp eq i32 %4, 0
  br i1 %cmp.i11.i.i, label %if.then.i13.i.i, label %seterr.exit14.i.i

if.then.i13.i.i:                                  ; preds = %if.then6.i.i
  store i32 12, ptr %error, align 8
  br label %seterr.exit14.i.i

seterr.exit14.i.i:                                ; preds = %if.then.i13.i.i, %if.then6.i.i
  store ptr @nuls, ptr %p, align 8
  %end.i12.i.i = getelementptr inbounds nuw i8, ptr %p, i64 8
  store ptr @nuls, ptr %end.i12.i.i, align 8
  br label %doemit.exit

if.end8.i.i:                                      ; preds = %if.end3.i.i
  store ptr %call4.i.i, ptr %strip.i.i, align 8
  store i64 %mul.i, ptr %ssize.i, align 8
  br label %doemit.exit

doemit.exit:                                      ; preds = %if.end.i, %if.then2.i, %seterr.exit.i.i, %seterr.exit14.i.i, %if.end8.i.i
  %or.i = or i64 %opnd, %op
  %strip.i = getelementptr inbounds nuw i8, ptr %p, i64 24
  %5 = load ptr, ptr %strip.i, align 8
  %6 = load i64, ptr %slen, align 8
  %inc.i = add nsw i64 %6, 1
  store i64 %inc.i, ptr %slen, align 8
  %arrayidx.i = getelementptr inbounds i64, ptr %5, i64 %6
  store i64 %or.i, ptr %arrayidx.i, align 8
  %7 = load ptr, ptr %strip.i, align 8
  %arrayidx = getelementptr inbounds i64, ptr %7, i64 %1
  %8 = load i64, ptr %arrayidx, align 8
  %pbegin = getelementptr inbounds nuw i8, ptr %p, i64 64
  %pend = getelementptr inbounds nuw i8, ptr %p, i64 144
  br label %for.body

for.body:                                         ; preds = %doemit.exit, %for.inc
  %indvars.iv = phi i64 [ 1, %doemit.exit ], [ %indvars.iv.next, %for.inc ]
  %arrayidx2 = getelementptr inbounds nuw [10 x i64], ptr %pbegin, i64 0, i64 %indvars.iv
  %9 = load i64, ptr %arrayidx2, align 8
  %cmp3.not = icmp slt i64 %9, %pos
  br i1 %cmp3.not, label %if.end8, label %if.then4

if.then4:                                         ; preds = %for.body
  %inc = add nsw i64 %9, 1
  store i64 %inc, ptr %arrayidx2, align 8
  br label %if.end8

if.end8:                                          ; preds = %if.then4, %for.body
  %arrayidx10 = getelementptr inbounds nuw [10 x i64], ptr %pend, i64 0, i64 %indvars.iv
  %10 = load i64, ptr %arrayidx10, align 8
  %cmp11.not = icmp slt i64 %10, %pos
  br i1 %cmp11.not, label %for.inc, label %if.then12

if.then12:                                        ; preds = %if.end8
  %inc16 = add nsw i64 %10, 1
  store i64 %inc16, ptr %arrayidx10, align 8
  br label %for.inc

for.inc:                                          ; preds = %if.end8, %if.then12
  %indvars.iv.next = add nuw nsw i64 %indvars.iv, 1
  %exitcond.not = icmp eq i64 %indvars.iv.next, 10
  br i1 %exitcond.not, label %for.end, label %for.body, !llvm.loop !19

for.end:                                          ; preds = %for.inc
  %11 = getelementptr i64, ptr %7, i64 %pos
  %arrayidx20 = getelementptr i8, ptr %11, i64 8
  %12 = load i64, ptr %slen, align 8
  %13 = xor i64 %pos, -1
  %sub24 = add i64 %12, %13
  %mul = shl i64 %sub24, 3
  tail call void @llvm.memmove.p0.p0.i64(ptr align 1 %arrayidx20, ptr align 1 %11, i64 %mul, i1 false)
  %14 = load ptr, ptr %strip.i, align 8
  %arrayidx26 = getelementptr inbounds i64, ptr %14, i64 %pos
  store i64 %8, ptr %arrayidx26, align 8
  br label %return

return:                                           ; preds = %entry, %for.end
  ret void
}